target datalayout = "e-m:e-p270:32:32-p271:32:32-p272:64:64-i64:64-i128:128-f80:128-n8:16:32:64-S128"
target triple = "x86_64-pc-linux-gnu"

; Function Attrs: nounwind uwtable
define internal void @ff_avg_dirac_pixels8_bilinear_c(ptr noundef %0, ptr noundef %1, i32 noundef %2, i32 noundef %3) #1 {
  %5 = alloca ptr, align 8
  %6 = alloca ptr, align 8
  %7 = alloca i32, align 4
  %8 = alloca i32, align 4
  %9 = alloca i32, align 4
  %10 = alloca ptr, align 8
  %11 = alloca ptr, align 8
  %12 = alloca ptr, align 8
  %13 = alloca ptr, align 8
  %14 = alloca ptr, align 8
  store ptr %0, ptr %5, align 8, !tbaa !11
  store ptr %1, ptr %6, align 8, !tbaa !59
  store i32 %2, ptr %7, align 4, !tbaa !13
  store i32 %3, ptr %8, align 4, !tbaa !13
  call void @llvm.lifetime.start.p0(i64 4, ptr %9) #5
  call void @llvm.lifetime.start.p0(i64 8, ptr %10) #5
  %15 = load ptr, ptr %6, align 8, !tbaa !59
  %16 = getelementptr inbounds ptr, ptr %15, i64 0
  %17 = load ptr, ptr %16, align 8, !tbaa !11
  store ptr %17, ptr %10, align 8, !tbaa !11
  call void @llvm.lifetime.start.p0(i64 8, ptr %11) #5
  %18 = load ptr, ptr %6, align 8, !tbaa !59
  %19 = getelementptr inbounds ptr, ptr %18, i64 1
  %20 = load ptr, ptr %19, align 8, !tbaa !11
  store ptr %20, ptr %11, align 8, !tbaa !11
  call void @llvm.lifetime.start.p0(i64 8, ptr %12) #5
  %21 = load ptr, ptr %6, align 8, !tbaa !59
  %22 = getelementptr inbounds ptr, ptr %21, i64 2
  %23 = load ptr, ptr %22, align 8, !tbaa !11
  store ptr %23, ptr %12, align 8, !tbaa !11
  call void @llvm.lifetime.start.p0(i64 8, ptr %13) #5
  %24 = load ptr, ptr %6, align 8, !tbaa !59
  %25 = getelementptr inbounds ptr, ptr %24, i64 3
  %26 = load ptr, ptr %25, align 8, !tbaa !11
  store ptr %26, ptr %13, align 8, !tbaa !11
  call void @llvm.lifetime.start.p0(i64 8, ptr %14) #5
  %27 = load ptr, ptr %6, align 8, !tbaa !59
  %28 = getelementptr inbounds ptr, ptr %27, i64 4
  %29 = load ptr, ptr %28, align 8, !tbaa !11
  store ptr %29, ptr %14, align 8, !tbaa !11
  br label %30

30:                                               ; preds = %105, %4
  %31 = load i32, ptr %8, align 4, !tbaa !13
  %32 = add nsw i32 %31, -1
  store i32 %32, ptr %8, align 4, !tbaa !13
  %33 = icmp ne i32 %31, 0
  br i1 %33, label %34, label %126

34:                                               ; preds = %30
  store i32 0, ptr %9, align 4, !tbaa !13
  br label %35

35:                                               ; preds = %102, %34
  %36 = load i32, ptr %9, align 4, !tbaa !13
  %37 = icmp slt i32 %36, 8
  br i1 %37, label %38, label %105

38:                                               ; preds = %35
  %39 = load ptr, ptr %5, align 8, !tbaa !11
  %40 = load i32, ptr %9, align 4, !tbaa !13
  %41 = sext i32 %40 to i64
  %42 = getelementptr inbounds i8, ptr %39, i64 %41
  %43 = load i8, ptr %42, align 1, !tbaa !15
  %44 = zext i8 %43 to i32
  %45 = load ptr, ptr %10, align 8, !tbaa !11
  %46 = load i32, ptr %9, align 4, !tbaa !13
  %47 = sext i32 %46 to i64
  %48 = getelementptr inbounds i8, ptr %45, i64 %47
  %49 = load i8, ptr %48, align 1, !tbaa !15
  %50 = zext i8 %49 to i32
  %51 = load ptr, ptr %14, align 8, !tbaa !11
  %52 = getelementptr inbounds i8, ptr %51, i64 0
  %53 = load i8, ptr %52, align 1, !tbaa !15
  %54 = zext i8 %53 to i32
  %55 = mul nsw i32 %50, %54
  %56 = load ptr, ptr %11, align 8, !tbaa !11
  %57 = load i32, ptr %9, align 4, !tbaa !13
  %58 = sext i32 %57 to i64
  %59 = getelementptr inbounds i8, ptr %56, i64 %58
  %60 = load i8, ptr %59, align 1, !tbaa !15
  %61 = zext i8 %60 to i32
  %62 = load ptr, ptr %14, align 8, !tbaa !11
  %63 = getelementptr inbounds i8, ptr %62, i64 1
  %64 = load i8, ptr %63, align 1, !tbaa !15
  %65 = zext i8 %64 to i32
  %66 = mul nsw i32 %61, %65
  %67 = add nsw i32 %55, %66
  %68 = load ptr, ptr %12, align 8, !tbaa !11
  %69 = load i32, ptr %9, align 4, !tbaa !13
  %70 = sext i32 %69 to i64
  %71 = getelementptr inbounds i8, ptr %68, i64 %70
  %72 = load i8, ptr %71, align 1, !tbaa !15
  %73 = zext i8 %72 to i32
  %74 = load ptr, ptr %14, align 8, !tbaa !11
  %75 = getelementptr inbounds i8, ptr %74, i64 2
  %76 = load i8, ptr %75, align 1, !tbaa !15
  %77 = zext i8 %76 to i32
  %78 = mul nsw i32 %73, %77
  %79 = add nsw i32 %67, %78
  %80 = load ptr, ptr %13, align 8, !tbaa !11
  %81 = load i32, ptr %9, align 4, !tbaa !13
  %82 = sext i32 %81 to i64
  %83 = getelementptr inbounds i8, ptr %80, i64 %82
  %84 = load i8, ptr %83, align 1, !tbaa !15
  %85 = zext i8 %84 to i32
  %86 = load ptr, ptr %14, align 8, !tbaa !11
  %87 = getelementptr inbounds i8, ptr %86, i64 3
  %88 = load i8, ptr %87, align 1, !tbaa !15
  %89 = zext i8 %88 to i32
  %90 = mul nsw i32 %85, %89
  %91 = add nsw i32 %79, %90
  %92 = add nsw i32 %91, 8
  %93 = ashr i32 %92, 4
  %94 = add nsw i32 %44, %93
  %95 = add nsw i32 %94, 1
  %96 = ashr i32 %95, 1
  %97 = trunc i32 %96 to i8
  %98 = load ptr, ptr %5, align 8, !tbaa !11
  %99 = load i32, ptr %9, align 4, !tbaa !13
  %100 = sext i32 %99 to i64
  %101 = getelementptr inbounds i8, ptr %98, i64 %100
  store i8 %97, ptr %101, align 1, !tbaa !15
  br label %102

102:                                              ; preds = %38
  %103 = load i32, ptr %9, align 4, !tbaa !13
  %104 = add nsw i32 %103, 1
  store i32 %104, ptr %9, align 4, !tbaa !13
  br label %35, !llvm.loop !68

105:                                              ; preds = %35
  %106 = load i32, ptr %7, align 4, !tbaa !13
  %107 = load ptr, ptr %5, align 8, !tbaa !11
  %108 = sext i32 %106 to i64
  %109 = getelementptr inbounds i8, ptr %107, i64 %108
  store ptr %109, ptr %5, align 8, !tbaa !11
  %110 = load i32, ptr %7, align 4, !tbaa !13
  %111 = load ptr, ptr %10, align 8, !tbaa !11
  %112 = sext i32 %110 to i64
  %113 = getelementptr inbounds i8, ptr %111, i64 %112
  store ptr %113, ptr %10, align 8, !tbaa !11
  %114 = load i32, ptr %7, align 4, !tbaa !13
  %115 = load ptr, ptr %11, align 8, !tbaa !11
  %116 = sext i32 %114 to i64
  %117 = getelementptr inbounds i8, ptr %115, i64 %116
  store ptr %117, ptr %11, align 8, !tbaa !11
  %118 = load i32, ptr %7, align 4, !tbaa !13
  %119 = load ptr, ptr %12, align 8, !tbaa !11
  %120 = sext i32 %118 to i64
  %121 = getelementptr inbounds i8, ptr %119, i64 %120
  store ptr %121, ptr %12, align 8, !tbaa !11
  %122 = load i32, ptr %7, align 4, !tbaa !13
  %123 = load ptr, ptr %13, align 8, !tbaa !11
  %124 = sext i32 %122 to i64
  %125 = getelementptr inbounds i8, ptr %123, i64 %124
  store ptr %125, ptr %13, align 8, !tbaa !11
  br label %30, !llvm.loop !69

126:                                              ; preds = %30
  call void @llvm.lifetime.end.p0(i64 8, ptr %14) #5
  call void @llvm.lifetime.end.p0(i64 8, ptr %13) #5
  call void @llvm.lifetime.end.p0(i64 8, ptr %12) #5
  call void @llvm.lifetime.end.p0(i64 8, ptr %11) #5
  call void @llvm.lifetime.end.p0(i64 8, ptr %10) #5
  call void @llvm.lifetime.end.p0(i64 4, ptr %9) #5
  ret void
}